; Function Attrs: mustprogress uwtable
define noundef zeroext i1 @_ZNK4GURL24SchemeIsValidForReferrerEv(ptr noundef nonnull align 8 dereferenceable(120) %0) local_unnamed_addr #0 align 2 {
  %2 = getelementptr inbounds nuw i8, ptr %0, i64 32
  %3 = load i8, ptr %2, align 8, !tbaa !13, !range !30, !noundef !31
  %4 = trunc nuw i8 %3 to i1
  br i1 %4, label %5, label %9

5:                                                ; preds = %1
  %6 = load ptr, ptr %0, align 8, !tbaa !28
  %7 = getelementptr inbounds nuw i8, ptr %0, i64 40
  %8 = tail call noundef zeroext i1 @_ZN3url16IsReferrerSchemeEPKcRKNS_9ComponentE(ptr noundef %6, ptr noundef nonnull align 4 dereferenceable(8) %7)
  br label %9

9:                                                ; preds = %5, %1
  %10 = phi i1 [ false, %1 ], [ %8, %5 ]
  ret i1 %10
}